target datalayout = "e-m:e-p270:32:32-p271:32:32-p272:64:64-i64:64-i128:128-f80:128-n8:16:32:64-S128"
target triple = "x86_64-pc-linux-gnu"

; Function Attrs: null_pointer_is_valid sspstrong uwtable
define hidden i32 @IWbemLoginClientIDEx_dissect_struct_ORPCTHIS(ptr noundef %0, i32 noundef %1, ptr noundef %2, ptr noundef %3, ptr noundef %4, ptr noundef %5, i32 noundef %6, i32 noundef %7) #0 {
  %9 = alloca ptr, align 8
  %10 = alloca i32, align 4
  %11 = alloca ptr, align 8
  %12 = alloca ptr, align 8
  %13 = alloca ptr, align 8
  %14 = alloca ptr, align 8
  %15 = alloca i32, align 4
  %16 = alloca i32, align 4
  %17 = alloca ptr, align 8
  %18 = alloca i32, align 4
  store ptr %0, ptr %9, align 8
  store i32 %1, ptr %10, align 4
  store ptr %2, ptr %11, align 8
  store ptr %3, ptr %12, align 8
  store ptr %4, ptr %13, align 8
  store ptr %5, ptr %14, align 8
  store i32 %6, ptr %15, align 4
  store i32 %7, ptr %16, align 4
  call void @llvm.lifetime.start.p0(i64 8, ptr %17) #4
  store ptr null, ptr %17, align 8
  call void @llvm.lifetime.start.p0(i64 4, ptr %18) #4
  %19 = load i32, ptr %10, align 4
  store i32 %19, ptr %18, align 4
  %20 = load ptr, ptr %12, align 8
  %21 = icmp ne ptr %20, null
  br i1 %21, label %22, label %28

22:                                               ; preds = %8
  %23 = load ptr, ptr %12, align 8
  %24 = load i32, ptr %15, align 4
  %25 = load ptr, ptr %9, align 8
  %26 = load i32, ptr %10, align 4
  %27 = call ptr @proto_tree_add_item(ptr noundef %23, i32 noundef %24, ptr noundef %25, i32 noundef %26, i32 noundef -1, i32 noundef 0)
  store ptr %27, ptr %17, align 8
  br label %28

28:                                               ; preds = %22, %8
  %29 = load ptr, ptr %17, align 8
  %30 = load i32, ptr %10, align 4
  %31 = load i32, ptr %18, align 4
  %32 = sub i32 %30, %31
  call void @proto_item_set_len(ptr noundef %29, i32 noundef %32)
  %33 = load i32, ptr %10, align 4
  call void @llvm.lifetime.end.p0(i64 4, ptr %18) #4
  call void @llvm.lifetime.end.p0(i64 8, ptr %17) #4
  ret i32 %33
}