; Function Attrs: null_pointer_is_valid sspstrong uwtable
define hidden noundef i32 @IWbemLoginClientIDEx_dissect_struct_ORPCTHIS(ptr noundef %0, i32 noundef returned %1, ptr noundef readnone captures(none) %2, ptr noundef %3, ptr noundef readnone captures(none) %4, ptr noundef readnone captures(none) %5, i32 noundef %6, i32 noundef %7) local_unnamed_addr #0 {
  %.not = icmp eq ptr %3, null
  br i1 %.not, label %11, label %9

9:                                                ; preds = %8
  %10 = tail call ptr @proto_tree_add_item(ptr noundef nonnull %3, i32 noundef %6, ptr noundef %0, i32 noundef %1, i32 noundef -1, i32 noundef 0)
  br label %11

11:                                               ; preds = %9, %8
  %.0 = phi ptr [ %10, %9 ], [ null, %8 ]
  tail call void @proto_item_set_len(ptr noundef %.0, i32 noundef 0)
  ret i32 %1
}